target datalayout = "e-m:e-p270:32:32-p271:32:32-p272:64:64-i64:64-i128:128-f80:128-n8:16:32:64-S128"
target triple = "x86_64-pc-linux-gnu"

%struct.pre_fixup_info = type { %struct.string, i64, i64 }
%struct.string = type { ptr, ptr, i32 }

@.str.29 = private unnamed_addr constant [54 x i8] c"calc_pos_with_skip: skip:%llu, %llu - %llu \22%s\22,\22%s\22\0A\00", align 1
@.str.30 = private unnamed_addr constant [23 x i8] c"calc_pos_with_skip:%s\0A\00", align 1

; Function Attrs: inlinehint nounwind uwtable
define internal signext i8 @get_char_at_pos_with_skip(ptr noundef %0, ptr noundef %1, i64 noundef %2) #7 {
  %4 = alloca i8, align 1
  %5 = alloca ptr, align 8
  %6 = alloca ptr, align 8
  %7 = alloca i64, align 8
  %8 = alloca ptr, align 8
  %9 = alloca i64, align 8
  %10 = alloca i32, align 4
  store ptr %0, ptr %5, align 8, !tbaa !10
  store ptr %1, ptr %6, align 8, !tbaa !8
  store i64 %2, ptr %7, align 8, !tbaa !19
  call void @llvm.lifetime.start.p0(i64 8, ptr %8) #11
  call void @llvm.lifetime.start.p0(i64 8, ptr %9) #11
  store i64 0, ptr %9, align 8, !tbaa !19
  %11 = load ptr, ptr %5, align 8, !tbaa !10
  %12 = icmp ne ptr %11, null
  br i1 %12, label %35, label %13

13:                                               ; preds = %3
  %14 = load i64, ptr %7, align 8, !tbaa !19
  %15 = load ptr, ptr %6, align 8, !tbaa !8
  %16 = call i64 @strlen(ptr noundef %15) #12
  %17 = icmp ule i64 %14, %16
  br i1 %17, label %18, label %31

18:                                               ; preds = %13
  %19 = load ptr, ptr %6, align 8, !tbaa !8
  %20 = load i64, ptr %7, align 8, !tbaa !19
  %21 = icmp ugt i64 %20, 0
  br i1 %21, label %22, label %25

22:                                               ; preds = %18
  %23 = load i64, ptr %7, align 8, !tbaa !19
  %24 = sub i64 %23, 1
  br label %26

25:                                               ; preds = %18
  br label %26

26:                                               ; preds = %25, %22
  %27 = phi i64 [ %24, %22 ], [ 0, %25 ]
  %28 = getelementptr inbounds nuw i8, ptr %19, i64 %27
  %29 = load i8, ptr %28, align 1, !tbaa !18
  %30 = sext i8 %29 to i32
  br label %32

31:                                               ; preds = %13
  br label %32

32:                                               ; preds = %31, %26
  %33 = phi i32 [ %30, %26 ], [ 0, %31 ]
  %34 = trunc i32 %33 to i8
  store i8 %34, ptr %4, align 1
  store i32 1, ptr %10, align 4
  br label %151

35:                                               ; preds = %3
  %36 = load ptr, ptr %5, align 8, !tbaa !10
  %37 = getelementptr inbounds nuw %struct.pre_fixup_info, ptr %36, i32 0, i32 0
  %38 = getelementptr inbounds nuw %struct.string, ptr %37, i32 0, i32 1
  %39 = load ptr, ptr %38, align 8, !tbaa !107
  store ptr %39, ptr %8, align 8, !tbaa !8
  %40 = load i64, ptr %7, align 8, !tbaa !19
  %41 = load ptr, ptr %5, align 8, !tbaa !10
  %42 = getelementptr inbounds nuw %struct.pre_fixup_info, ptr %41, i32 0, i32 1
  %43 = load i64, ptr %42, align 8, !tbaa !111
  %44 = load ptr, ptr %5, align 8, !tbaa !10
  %45 = getelementptr inbounds nuw %struct.pre_fixup_info, ptr %44, i32 0, i32 2
  %46 = load i64, ptr %45, align 8, !tbaa !112
  %47 = load ptr, ptr %8, align 8, !tbaa !8
  %48 = load ptr, ptr %6, align 8, !tbaa !8
  call void (ptr, ...) @cli_dbgmsg(ptr noundef @.str.29, i64 noundef %40, i64 noundef %43, i64 noundef %46, ptr noundef %47, ptr noundef %48)
  %49 = load ptr, ptr %5, align 8, !tbaa !10
  %50 = getelementptr inbounds nuw %struct.pre_fixup_info, ptr %49, i32 0, i32 1
  %51 = load i64, ptr %50, align 8, !tbaa !111
  %52 = load i64, ptr %7, align 8, !tbaa !19
  %53 = add i64 %52, %51
  store i64 %53, ptr %7, align 8, !tbaa !19
  br label %54

54:                                               ; preds = %78, %35
  %55 = load ptr, ptr %8, align 8, !tbaa !8
  %56 = load i64, ptr %9, align 8, !tbaa !19
  %57 = getelementptr inbounds nuw i8, ptr %55, i64 %56
  %58 = load i8, ptr %57, align 1, !tbaa !18
  %59 = sext i8 %58 to i32
  %60 = icmp ne i32 %59, 0
  br i1 %60, label %61, label %76

61:                                               ; preds = %54
  %62 = call ptr @__ctype_b_loc() #13
  %63 = load ptr, ptr %62, align 8, !tbaa !88
  %64 = load ptr, ptr %8, align 8, !tbaa !8
  %65 = load i64, ptr %9, align 8, !tbaa !19
  %66 = getelementptr inbounds nuw i8, ptr %64, i64 %65
  %67 = load i8, ptr %66, align 1, !tbaa !18
  %68 = sext i8 %67 to i32
  %69 = sext i32 %68 to i64
  %70 = getelementptr inbounds i16, ptr %63, i64 %69
  %71 = load i16, ptr %70, align 2, !tbaa !90
  %72 = zext i16 %71 to i32
  %73 = and i32 %72, 8
  %74 = icmp ne i32 %73, 0
  %75 = xor i1 %74, true
  br label %76

76:                                               ; preds = %61, %54
  %77 = phi i1 [ false, %54 ], [ %75, %61 ]
  br i1 %77, label %78, label %81

78:                                               ; preds = %76
  %79 = load i64, ptr %9, align 8, !tbaa !19
  %80 = add i64 %79, 1
  store i64 %80, ptr %9, align 8, !tbaa !19
  br label %54

81:                                               ; preds = %76
  br label %82

82:                                               ; preds = %108, %81
  %83 = load ptr, ptr %8, align 8, !tbaa !8
  %84 = load i64, ptr %9, align 8, !tbaa !19
  %85 = getelementptr inbounds nuw i8, ptr %83, i64 %84
  %86 = load i8, ptr %85, align 1, !tbaa !18
  %87 = sext i8 %86 to i32
  %88 = icmp ne i32 %87, 0
  br i1 %88, label %89, label %92

89:                                               ; preds = %82
  %90 = load i64, ptr %7, align 8, !tbaa !19
  %91 = icmp ugt i64 %90, 0
  br label %92

92:                                               ; preds = %89, %82
  %93 = phi i1 [ false, %82 ], [ %91, %89 ]
  br i1 %93, label %94, label %111

94:                                               ; preds = %92
  br label %95

95:                                               ; preds = %102, %94
  %96 = load ptr, ptr %8, align 8, !tbaa !8
  %97 = load i64, ptr %9, align 8, !tbaa !19
  %98 = getelementptr inbounds nuw i8, ptr %96, i64 %97
  %99 = load i8, ptr %98, align 1, !tbaa !18
  %100 = sext i8 %99 to i32
  %101 = icmp eq i32 %100, 32
  br i1 %101, label %102, label %105

102:                                              ; preds = %95
  %103 = load i64, ptr %9, align 8, !tbaa !19
  %104 = add i64 %103, 1
  store i64 %104, ptr %9, align 8, !tbaa !19
  br label %95

105:                                              ; preds = %95
  %106 = load i64, ptr %9, align 8, !tbaa !19
  %107 = add i64 %106, 1
  store i64 %107, ptr %9, align 8, !tbaa !19
  br label %108

108:                                              ; preds = %105
  %109 = load i64, ptr %7, align 8, !tbaa !19
  %110 = add i64 %109, -1
  store i64 %110, ptr %7, align 8, !tbaa !19
  br label %82

111:                                              ; preds = %92
  br label %112

112:                                              ; preds = %119, %111
  %113 = load ptr, ptr %8, align 8, !tbaa !8
  %114 = load i64, ptr %9, align 8, !tbaa !19
  %115 = getelementptr inbounds nuw i8, ptr %113, i64 %114
  %116 = load i8, ptr %115, align 1, !tbaa !18
  %117 = sext i8 %116 to i32
  %118 = icmp eq i32 %117, 32
  br i1 %118, label %119, label %122

119:                                              ; preds = %112
  %120 = load i64, ptr %9, align 8, !tbaa !19
  %121 = add i64 %120, 1
  store i64 %121, ptr %9, align 8, !tbaa !19
  br label %112

122:                                              ; preds = %112
  %123 = load ptr, ptr %8, align 8, !tbaa !8
  %124 = load i64, ptr %9, align 8, !tbaa !19
  %125 = getelementptr inbounds nuw i8, ptr %123, i64 %124
  call void (ptr, ...) @cli_dbgmsg(ptr noundef @.str.30, ptr noundef %125)
  %126 = load i64, ptr %7, align 8, !tbaa !19
  %127 = icmp ugt i64 %126, 0
  br i1 %127, label %128, label %135

128:                                              ; preds = %122
  %129 = load ptr, ptr %8, align 8, !tbaa !8
  %130 = load i64, ptr %9, align 8, !tbaa !19
  %131 = getelementptr inbounds nuw i8, ptr %129, i64 %130
  %132 = load i8, ptr %131, align 1, !tbaa !18
  %133 = icmp ne i8 %132, 0
  br i1 %133, label %135, label %134

134:                                              ; preds = %128
  br label %148

135:                                              ; preds = %128, %122
  %136 = load ptr, ptr %8, align 8, !tbaa !8
  %137 = load i64, ptr %9, align 8, !tbaa !19
  %138 = icmp ugt i64 %137, 0
  br i1 %138, label %139, label %142

139:                                              ; preds = %135
  %140 = load i64, ptr %9, align 8, !tbaa !19
  %141 = sub i64 %140, 1
  br label %143

142:                                              ; preds = %135
  br label %143

143:                                              ; preds = %142, %139
  %144 = phi i64 [ %141, %139 ], [ 0, %142 ]
  %145 = getelementptr inbounds nuw i8, ptr %136, i64 %144
  %146 = load i8, ptr %145, align 1, !tbaa !18
  %147 = sext i8 %146 to i32
  br label %148

148:                                              ; preds = %143, %134
  %149 = phi i32 [ 0, %134 ], [ %147, %143 ]
  %150 = trunc i32 %149 to i8
  store i8 %150, ptr %4, align 1
  store i32 1, ptr %10, align 4
  br label %151

151:                                              ; preds = %148, %32
  call void @llvm.lifetime.end.p0(i64 8, ptr %9) #11
  call void @llvm.lifetime.end.p0(i64 8, ptr %8) #11
  %152 = load i8, ptr %4, align 1
  ret i8 %152
}