; Function Attrs: inlinehint nounwind uwtable
define internal fastcc signext i8 @get_char_at_pos_with_skip(ptr noundef readonly %0, ptr noundef nonnull %1, i64 noundef %2) unnamed_addr #8 {
  %.not = icmp eq ptr %0, null
  br i1 %.not, label %4, label %6

4:                                                ; preds = %3
  %5 = tail call i64 @strlen(ptr noundef nonnull dereferenceable(1) %1) #15
  %.not43 = icmp ugt i64 %2, %5
  br i1 %.not43, label %52, label %.sink.split

6:                                                ; preds = %3
  %7 = getelementptr inbounds nuw i8, ptr %0, i64 8
  %8 = load ptr, ptr %7, align 8, !tbaa !103
  %9 = getelementptr inbounds nuw i8, ptr %0, i64 24
  %10 = load i64, ptr %9, align 8, !tbaa !107
  %11 = getelementptr inbounds nuw i8, ptr %0, i64 32
  %12 = load i64, ptr %11, align 8, !tbaa !108
  tail call void (ptr, ...) @cli_dbgmsg(ptr noundef nonnull @.str.29, i64 noundef %2, i64 noundef %10, i64 noundef %12, ptr noundef %8, ptr noundef nonnull %1) #14
  %13 = load i64, ptr %9, align 8, !tbaa !107
  %14 = add i64 %13, %2
  %15 = load i8, ptr %8, align 1, !tbaa !10
  %.not4551 = icmp eq i8 %15, 0
  br i1 %.not4551, label %.critedge.thread, label %.lr.ph

.lr.ph:                                           ; preds = %6
  %16 = tail call ptr @__ctype_b_loc() #16
  %17 = load ptr, ptr %16, align 8, !tbaa !49
  br label %18

18:                                               ; preds = %.lr.ph, %23
  %.pre.pre = phi i8 [ %15, %.lr.ph ], [ %26, %23 ]
  %.052 = phi i64 [ 0, %.lr.ph ], [ %24, %23 ]
  %19 = sext i8 %.pre.pre to i64
  %20 = getelementptr inbounds i16, ptr %17, i64 %19
  %21 = load i16, ptr %20, align 2, !tbaa !51
  %22 = and i16 %21, 8
  %.not46.not = icmp eq i16 %22, 0
  br i1 %.not46.not, label %23, label %.critedge

23:                                               ; preds = %18
  %24 = add i64 %.052, 1
  %25 = getelementptr inbounds nuw i8, ptr %8, i64 %24
  %26 = load i8, ptr %25, align 1, !tbaa !10
  %.not45 = icmp eq i8 %26, 0
  br i1 %.not45, label %.critedge.thread, label %18

.critedge.thread:                                 ; preds = %23, %6
  %.0.lcssa.ph = phi i64 [ 0, %6 ], [ %24, %23 ]
  %27 = icmp ne i64 %14, 0
  br label %.preheader

.critedge:                                        ; preds = %18
  %.not70 = icmp eq i64 %14, 0
  br i1 %.not70, label %.preheader, label %.preheader49

.preheader49:                                     ; preds = %.critedge, %33
  %.156 = phi i64 [ %32, %33 ], [ %.052, %.critedge ]
  %.03955 = phi i64 [ %34, %33 ], [ %14, %.critedge ]
  br label %28

.preheader:                                       ; preds = %33, %.critedge.thread, %.critedge
  %.1.lcssa = phi i64 [ %.052, %.critedge ], [ %.0.lcssa.ph, %.critedge.thread ], [ %32, %33 ]
  %.lcssa50 = phi i1 [ false, %.critedge ], [ %27, %.critedge.thread ], [ %38, %33 ]
  br label %40

28:                                               ; preds = %28, %.preheader49
  %.2 = phi i64 [ %32, %28 ], [ %.156, %.preheader49 ]
  %29 = getelementptr inbounds nuw i8, ptr %8, i64 %.2
  %30 = load i8, ptr %29, align 1, !tbaa !10
  %31 = icmp eq i8 %30, 32
  %32 = add i64 %.2, 1
  br i1 %31, label %28, label %33

33:                                               ; preds = %28
  %34 = add i64 %.03955, -1
  %35 = getelementptr inbounds nuw i8, ptr %8, i64 %32
  %36 = load i8, ptr %35, align 1, !tbaa !10
  %37 = icmp ne i8 %36, 0
  %38 = icmp ne i64 %34, 0
  %39 = select i1 %37, i1 %38, i1 false
  br i1 %39, label %.preheader49, label %.preheader

40:                                               ; preds = %40, %.preheader
  %.3 = phi i64 [ %44, %40 ], [ %.1.lcssa, %.preheader ]
  %41 = getelementptr inbounds nuw i8, ptr %8, i64 %.3
  %42 = load i8, ptr %41, align 1, !tbaa !10
  %43 = icmp eq i8 %42, 32
  %44 = add i64 %.3, 1
  br i1 %43, label %40, label %45

45:                                               ; preds = %40
  %46 = getelementptr inbounds nuw i8, ptr %8, i64 %.3
  tail call void (ptr, ...) @cli_dbgmsg(ptr noundef nonnull @.str.30, ptr noundef nonnull %46) #14
  br i1 %.lcssa50, label %47, label %.sink.split

47:                                               ; preds = %45
  %48 = load i8, ptr %46, align 1, !tbaa !10
  %.not47 = icmp eq i8 %48, 0
  br i1 %.not47, label %52, label %.sink.split

.sink.split:                                      ; preds = %45, %47, %4
  %.3.lcssa67.sink = phi i64 [ %2, %4 ], [ %.3, %47 ], [ %.3, %45 ]
  %.sink68 = phi ptr [ %1, %4 ], [ %8, %47 ], [ %8, %45 ]
  %49 = tail call i64 @llvm.usub.sat.i64(i64 %.3.lcssa67.sink, i64 1)
  %50 = getelementptr inbounds nuw i8, ptr %.sink68, i64 %49
  %51 = load i8, ptr %50, align 1, !tbaa !10
  br label %52

52:                                               ; preds = %.sink.split, %47, %4
  %.038 = phi i8 [ 0, %4 ], [ 0, %47 ], [ %51, %.sink.split ]
  ret i8 %.038
}